target datalayout = "e-m:e-p270:32:32-p271:32:32-p272:64:64-i64:64-i128:128-f80:128-n8:16:32:64-S128"
target triple = "x86_64-pc-linux-gnu"

%struct.AVBPrint = type { ptr, i32, i32, i32, [1 x i8], [1000 x i8] }

; Function Attrs: inlinehint nounwind uwtable
define internal i32 @av_bprint_is_complete(ptr noundef %0) #7 {
  %2 = alloca ptr, align 8
  store ptr %0, ptr %2, align 8, !tbaa !74
  %3 = load ptr, ptr %2, align 8, !tbaa !74
  %4 = getelementptr inbounds nuw %struct.AVBPrint, ptr %3, i32 0, i32 1
  %5 = load i32, ptr %4, align 8, !tbaa !76
  %6 = load ptr, ptr %2, align 8, !tbaa !74
  %7 = getelementptr inbounds nuw %struct.AVBPrint, ptr %6, i32 0, i32 2
  %8 = load i32, ptr %7, align 4, !tbaa !96
  %9 = icmp ult i32 %5, %8
  %10 = zext i1 %9 to i32
  ret i32 %10
}

; Function Attrs: nounwind uwtable
define i32 @avio_read_to_bprint(ptr noundef %0, ptr noundef %1, i64 noundef %2) #0 {
  %4 = alloca i32, align 4
  %5 = alloca ptr, align 8
  %6 = alloca ptr, align 8
  %7 = alloca i64, align 8
  %8 = alloca i32, align 4
  %9 = alloca [1024 x i8], align 16
  %10 = alloca i32, align 4
  store ptr %0, ptr %5, align 8, !tbaa !14
  store ptr %1, ptr %6, align 8, !tbaa !74
  store i64 %2, ptr %7, align 8, !tbaa !53
  call void @llvm.lifetime.start.p0(i64 4, ptr %8) #12
  call void @llvm.lifetime.start.p0(i64 1024, ptr %9) #12
  br label %11

11:                                               ; preds = %42, %3
  %12 = load i64, ptr %7, align 8, !tbaa !53
  %13 = icmp ne i64 %12, 0
  br i1 %13, label %14, label %47

14:                                               ; preds = %11
  %15 = load ptr, ptr %5, align 8, !tbaa !14
  %16 = getelementptr inbounds [1024 x i8], ptr %9, i64 0, i64 0
  %17 = load i64, ptr %7, align 8, !tbaa !53
  %18 = icmp ugt i64 %17, 1024
  br i1 %18, label %19, label %20

19:                                               ; preds = %14
  br label %22

20:                                               ; preds = %14
  %21 = load i64, ptr %7, align 8, !tbaa !53
  br label %22

22:                                               ; preds = %20, %19
  %23 = phi i64 [ 1024, %19 ], [ %21, %20 ]
  %24 = trunc i64 %23 to i32
  %25 = call i32 @avio_read(ptr noundef %15, ptr noundef %16, i32 noundef %24)
  store i32 %25, ptr %8, align 4, !tbaa !11
  %26 = load i32, ptr %8, align 4, !tbaa !11
  %27 = icmp eq i32 %26, -541478725
  br i1 %27, label %28, label %29

28:                                               ; preds = %22
  store i32 0, ptr %4, align 4
  store i32 1, ptr %10, align 4
  br label %48

29:                                               ; preds = %22
  %30 = load i32, ptr %8, align 4, !tbaa !11
  %31 = icmp sle i32 %30, 0
  br i1 %31, label %32, label %34

32:                                               ; preds = %29
  %33 = load i32, ptr %8, align 4, !tbaa !11
  store i32 %33, ptr %4, align 4
  store i32 1, ptr %10, align 4
  br label %48

34:                                               ; preds = %29
  %35 = load ptr, ptr %6, align 8, !tbaa !74
  %36 = getelementptr inbounds [1024 x i8], ptr %9, i64 0, i64 0
  %37 = load i32, ptr %8, align 4, !tbaa !11
  call void @av_bprint_append_data(ptr noundef %35, ptr noundef %36, i32 noundef %37)
  %38 = load ptr, ptr %6, align 8, !tbaa !74
  %39 = call i32 @av_bprint_is_complete(ptr noundef %38)
  %40 = icmp ne i32 %39, 0
  br i1 %40, label %42, label %41

41:                                               ; preds = %34
  store i32 -12, ptr %4, align 4
  store i32 1, ptr %10, align 4
  br label %48

42:                                               ; preds = %34
  %43 = load i32, ptr %8, align 4, !tbaa !11
  %44 = sext i32 %43 to i64
  %45 = load i64, ptr %7, align 8, !tbaa !53
  %46 = sub i64 %45, %44
  store i64 %46, ptr %7, align 8, !tbaa !53
  br label %11, !llvm.loop !98

47:                                               ; preds = %11
  store i32 0, ptr %4, align 4
  store i32 1, ptr %10, align 4
  br label %48

48:                                               ; preds = %47, %41, %32, %28
  call void @llvm.lifetime.end.p0(i64 1024, ptr %9) #12
  call void @llvm.lifetime.end.p0(i64 4, ptr %8) #12
  %49 = load i32, ptr %4, align 4
  ret i32 %49
}