; Function Attrs: nounwind uwtable
define range(i32 -2147483648, 1) i32 @avio_read_to_bprint(ptr noundef %0, ptr noundef %1, i64 noundef %2) local_unnamed_addr #3 {
  %4 = alloca [1024 x i8], align 16
  call void @llvm.lifetime.start.p0(i64 1024, ptr nonnull %4) #14
  %.not17 = icmp eq i64 %2, 0
  br i1 %.not17, label %._crit_edge, label %.lr.ph

.lr.ph:                                           ; preds = %3
  %5 = getelementptr i8, ptr %1, i64 8
  %6 = getelementptr i8, ptr %1, i64 12
  br label %10

7:                                                ; preds = %17
  %8 = zext nneg i32 %13 to i64
  %9 = sub i64 %.01218, %8
  %.not = icmp eq i64 %9, 0
  br i1 %.not, label %._crit_edge, label %10, !llvm.loop !76

10:                                               ; preds = %.lr.ph, %7
  %.01218 = phi i64 [ %2, %.lr.ph ], [ %9, %7 ]
  %11 = call i64 @llvm.umin.i64(i64 %.01218, i64 1024)
  %12 = trunc nuw nsw i64 %11 to i32
  %13 = call i32 @avio_read(ptr noundef %0, ptr noundef nonnull %4, i32 noundef %12)
  %14 = icmp eq i32 %13, -541478725
  br i1 %14, label %._crit_edge, label %15

15:                                               ; preds = %10
  %16 = icmp slt i32 %13, 1
  br i1 %16, label %._crit_edge, label %17

17:                                               ; preds = %15
  call void @av_bprint_append_data(ptr noundef %1, ptr noundef nonnull %4, i32 noundef %13) #14
  %.val = load i32, ptr %5, align 8, !tbaa !58
  %.val15 = load i32, ptr %6, align 4, !tbaa !60
  %.not16 = icmp ult i32 %.val, %.val15
  br i1 %.not16, label %7, label %._crit_edge

._crit_edge:                                      ; preds = %10, %15, %17, %7, %3
  %.0 = phi i32 [ 0, %3 ], [ 0, %7 ], [ -12, %17 ], [ %13, %15 ], [ 0, %10 ]
  call void @llvm.lifetime.end.p0(i64 1024, ptr nonnull %4) #14
  ret i32 %.0
}